target datalayout = "e-m:e-p270:32:32-p271:32:32-p272:64:64-i64:64-i128:128-f80:128-n8:16:32:64-S128"
target triple = "x86_64-pc-linux-gnu"

%struct.opj_tccp = type { i32, i32, i32, i32, i32, i32, i32, [97 x %struct.opj_stepsize], i32, i32, [33 x i32], [33 x i32], i32 }
%struct.opj_stepsize = type { i32, i32 }

; Function Attrs: inlinehint nounwind uwtable
define internal i32 @opj_int_floorlog2(i32 noundef %0) #1 {
  %2 = alloca i32, align 4
  %3 = alloca i32, align 4
  store i32 %0, ptr %2, align 4, !tbaa !24
  call void @llvm.lifetime.start.p0(i64 4, ptr %3) #9
  store i32 0, ptr %3, align 4, !tbaa !24
  br label %4

4:                                                ; preds = %10, %1
  %5 = load i32, ptr %2, align 4, !tbaa !24
  %6 = icmp sgt i32 %5, 1
  br i1 %6, label %7, label %13

7:                                                ; preds = %4
  %8 = load i32, ptr %2, align 4, !tbaa !24
  %9 = ashr i32 %8, 1
  store i32 %9, ptr %2, align 4, !tbaa !24
  br label %10

10:                                               ; preds = %7
  %11 = load i32, ptr %3, align 4, !tbaa !24
  %12 = add nsw i32 %11, 1
  store i32 %12, ptr %3, align 4, !tbaa !24
  br label %4, !llvm.loop !182

13:                                               ; preds = %4
  %14 = load i32, ptr %3, align 4, !tbaa !24
  call void @llvm.lifetime.end.p0(i64 4, ptr %3) #9
  ret i32 %14
}

; Function Attrs: nounwind uwtable
define internal void @opj_dwt_encode_stepsize(i32 noundef %0, i32 noundef %1, ptr noundef %2) #0 {
  %4 = alloca i32, align 4
  %5 = alloca i32, align 4
  %6 = alloca ptr, align 8
  %7 = alloca i32, align 4
  %8 = alloca i32, align 4
  store i32 %0, ptr %4, align 4, !tbaa !24
  store i32 %1, ptr %5, align 4, !tbaa !24
  store ptr %2, ptr %6, align 8, !tbaa !121
  call void @llvm.lifetime.start.p0(i64 4, ptr %7) #9
  call void @llvm.lifetime.start.p0(i64 4, ptr %8) #9
  %9 = load i32, ptr %4, align 4, !tbaa !24
  %10 = call i32 @opj_int_floorlog2(i32 noundef %9)
  %11 = sub nsw i32 %10, 13
  store i32 %11, ptr %7, align 4, !tbaa !24
  %12 = load i32, ptr %4, align 4, !tbaa !24
  %13 = call i32 @opj_int_floorlog2(i32 noundef %12)
  %14 = sub nsw i32 11, %13
  store i32 %14, ptr %8, align 4, !tbaa !24
  %15 = load i32, ptr %8, align 4, !tbaa !24
  %16 = icmp slt i32 %15, 0
  br i1 %16, label %17, label %22

17:                                               ; preds = %3
  %18 = load i32, ptr %4, align 4, !tbaa !24
  %19 = load i32, ptr %8, align 4, !tbaa !24
  %20 = sub nsw i32 0, %19
  %21 = ashr i32 %18, %20
  br label %26

22:                                               ; preds = %3
  %23 = load i32, ptr %4, align 4, !tbaa !24
  %24 = load i32, ptr %8, align 4, !tbaa !24
  %25 = shl i32 %23, %24
  br label %26

26:                                               ; preds = %22, %17
  %27 = phi i32 [ %21, %17 ], [ %25, %22 ]
  %28 = and i32 %27, 2047
  %29 = load ptr, ptr %6, align 8, !tbaa !121
  %30 = getelementptr inbounds nuw %struct.opj_stepsize, ptr %29, i32 0, i32 1
  store i32 %28, ptr %30, align 4, !tbaa !123
  %31 = load i32, ptr %5, align 4, !tbaa !24
  %32 = load i32, ptr %7, align 4, !tbaa !24
  %33 = sub nsw i32 %31, %32
  %34 = load ptr, ptr %6, align 8, !tbaa !121
  %35 = getelementptr inbounds nuw %struct.opj_stepsize, ptr %34, i32 0, i32 0
  store i32 %33, ptr %35, align 4, !tbaa !125
  call void @llvm.lifetime.end.p0(i64 4, ptr %8) #9
  call void @llvm.lifetime.end.p0(i64 4, ptr %7) #9
  ret void
}

; Function Attrs: nounwind uwtable
define hidden double @opj_dwt_getnorm_real(i32 noundef %0, i32 noundef %1) #0 {
  %3 = alloca i32, align 4
  %4 = alloca i32, align 4
  store i32 %0, ptr %3, align 4, !tbaa !24
  store i32 %1, ptr %4, align 4, !tbaa !24
  %5 = load i32, ptr %4, align 4, !tbaa !24
  %6 = icmp eq i32 %5, 0
  br i1 %6, label %7, label %11

7:                                                ; preds = %2
  %8 = load i32, ptr %3, align 4, !tbaa !24
  %9 = icmp uge i32 %8, 10
  br i1 %9, label %10, label %11

10:                                               ; preds = %7
  store i32 9, ptr %3, align 4, !tbaa !24
  br label %19

11:                                               ; preds = %7, %2
  %12 = load i32, ptr %4, align 4, !tbaa !24
  %13 = icmp ugt i32 %12, 0
  br i1 %13, label %14, label %18

14:                                               ; preds = %11
  %15 = load i32, ptr %3, align 4, !tbaa !24
  %16 = icmp uge i32 %15, 9
  br i1 %16, label %17, label %18

17:                                               ; preds = %14
  store i32 8, ptr %3, align 4, !tbaa !24
  br label %18

18:                                               ; preds = %17, %14, %11
  br label %19

19:                                               ; preds = %18, %10
  %20 = load i32, ptr %4, align 4, !tbaa !24
  %21 = zext i32 %20 to i64
  %22 = getelementptr inbounds nuw [4 x [10 x double]], ptr @opj_dwt_norms_real, i64 0, i64 %21
  %23 = load i32, ptr %3, align 4, !tbaa !24
  %24 = zext i32 %23 to i64
  %25 = getelementptr inbounds nuw [10 x double], ptr %22, i64 0, i64 %24
  %26 = load double, ptr %25, align 8, !tbaa !110
  ret double %26
}

; Function Attrs: nounwind uwtable
define hidden void @opj_dwt_calc_explicit_stepsizes(ptr noundef %0, i32 noundef %1) #0 {
  %3 = alloca ptr, align 8
  %4 = alloca i32, align 4
  %5 = alloca i32, align 4
  %6 = alloca i32, align 4
  %7 = alloca double, align 8
  %8 = alloca i32, align 4
  %9 = alloca i32, align 4
  %10 = alloca i32, align 4
  %11 = alloca i32, align 4
  %12 = alloca double, align 8
  store ptr %0, ptr %3, align 8, !tbaa !114
  store i32 %1, ptr %4, align 4, !tbaa !24
  call void @llvm.lifetime.start.p0(i64 4, ptr %5) #9
  call void @llvm.lifetime.start.p0(i64 4, ptr %6) #9
  %13 = load ptr, ptr %3, align 8, !tbaa !114
  %14 = getelementptr inbounds nuw %struct.opj_tccp, ptr %13, i32 0, i32 1
  %15 = load i32, ptr %14, align 4, !tbaa !116
  %16 = mul i32 3, %15
  %17 = sub i32 %16, 2
  store i32 %17, ptr %5, align 4, !tbaa !24
  store i32 0, ptr %6, align 4, !tbaa !24
  br label %18

18:                                               ; preds = %98, %2
  %19 = load i32, ptr %6, align 4, !tbaa !24
  %20 = load i32, ptr %5, align 4, !tbaa !24
  %21 = icmp ult i32 %19, %20
  br i1 %21, label %22, label %101

22:                                               ; preds = %18
  call void @llvm.lifetime.start.p0(i64 8, ptr %7) #9
  call void @llvm.lifetime.start.p0(i64 4, ptr %8) #9
  call void @llvm.lifetime.start.p0(i64 4, ptr %9) #9
  call void @llvm.lifetime.start.p0(i64 4, ptr %10) #9
  call void @llvm.lifetime.start.p0(i64 4, ptr %11) #9
  %23 = load i32, ptr %6, align 4, !tbaa !24
  %24 = icmp eq i32 %23, 0
  br i1 %24, label %25, label %26

25:                                               ; preds = %22
  br label %31

26:                                               ; preds = %22
  %27 = load i32, ptr %6, align 4, !tbaa !24
  %28 = sub i32 %27, 1
  %29 = udiv i32 %28, 3
  %30 = add i32 %29, 1
  br label %31

31:                                               ; preds = %26, %25
  %32 = phi i32 [ 0, %25 ], [ %30, %26 ]
  store i32 %32, ptr %8, align 4, !tbaa !24
  %33 = load i32, ptr %6, align 4, !tbaa !24
  %34 = icmp eq i32 %33, 0
  br i1 %34, label %35, label %36

35:                                               ; preds = %31
  br label %41

36:                                               ; preds = %31
  %37 = load i32, ptr %6, align 4, !tbaa !24
  %38 = sub i32 %37, 1
  %39 = urem i32 %38, 3
  %40 = add i32 %39, 1
  br label %41

41:                                               ; preds = %36, %35
  %42 = phi i32 [ 0, %35 ], [ %40, %36 ]
  store i32 %42, ptr %10, align 4, !tbaa !24
  %43 = load ptr, ptr %3, align 8, !tbaa !114
  %44 = getelementptr inbounds nuw %struct.opj_tccp, ptr %43, i32 0, i32 1
  %45 = load i32, ptr %44, align 4, !tbaa !116
  %46 = sub i32 %45, 1
  %47 = load i32, ptr %8, align 4, !tbaa !24
  %48 = sub i32 %46, %47
  store i32 %48, ptr %9, align 4, !tbaa !24
  %49 = load ptr, ptr %3, align 8, !tbaa !114
  %50 = getelementptr inbounds nuw %struct.opj_tccp, ptr %49, i32 0, i32 5
  %51 = load i32, ptr %50, align 4, !tbaa !118
  %52 = icmp eq i32 %51, 0
  br i1 %52, label %53, label %54

53:                                               ; preds = %41
  br label %69

54:                                               ; preds = %41
  %55 = load i32, ptr %10, align 4, !tbaa !24
  %56 = icmp eq i32 %55, 0
  br i1 %56, label %57, label %58

57:                                               ; preds = %54
  br label %67

58:                                               ; preds = %54
  %59 = load i32, ptr %10, align 4, !tbaa !24
  %60 = icmp eq i32 %59, 1
  br i1 %60, label %64, label %61

61:                                               ; preds = %58
  %62 = load i32, ptr %10, align 4, !tbaa !24
  %63 = icmp eq i32 %62, 2
  br label %64

64:                                               ; preds = %61, %58
  %65 = phi i1 [ true, %58 ], [ %63, %61 ]
  %66 = select i1 %65, i32 1, i32 2
  br label %67

67:                                               ; preds = %64, %57
  %68 = phi i32 [ 0, %57 ], [ %66, %64 ]
  br label %69

69:                                               ; preds = %67, %53
  %70 = phi i32 [ 0, %53 ], [ %68, %67 ]
  store i32 %70, ptr %11, align 4, !tbaa !24
  %71 = load ptr, ptr %3, align 8, !tbaa !114
  %72 = getelementptr inbounds nuw %struct.opj_tccp, ptr %71, i32 0, i32 6
  %73 = load i32, ptr %72, align 4, !tbaa !119
  %74 = icmp eq i32 %73, 0
  br i1 %74, label %75, label %76

75:                                               ; preds = %69
  store double 1.000000e+00, ptr %7, align 8, !tbaa !110
  br label %85

76:                                               ; preds = %69
  call void @llvm.lifetime.start.p0(i64 8, ptr %12) #9
  %77 = load i32, ptr %9, align 4, !tbaa !24
  %78 = load i32, ptr %10, align 4, !tbaa !24
  %79 = call double @opj_dwt_getnorm_real(i32 noundef %77, i32 noundef %78)
  store double %79, ptr %12, align 8, !tbaa !110
  %80 = load i32, ptr %11, align 4, !tbaa !24
  %81 = shl i32 1, %80
  %82 = sitofp i32 %81 to double
  %83 = load double, ptr %12, align 8, !tbaa !110
  %84 = fdiv double %82, %83
  store double %84, ptr %7, align 8, !tbaa !110
  call void @llvm.lifetime.end.p0(i64 8, ptr %12) #9
  br label %85

85:                                               ; preds = %76, %75
  %86 = load double, ptr %7, align 8, !tbaa !110
  %87 = fmul double %86, 8.192000e+03
  %88 = call double @llvm.floor.f64(double %87)
  %89 = fptosi double %88 to i32
  %90 = load i32, ptr %4, align 4, !tbaa !24
  %91 = load i32, ptr %11, align 4, !tbaa !24
  %92 = add i32 %90, %91
  %93 = load ptr, ptr %3, align 8, !tbaa !114
  %94 = getelementptr inbounds nuw %struct.opj_tccp, ptr %93, i32 0, i32 7
  %95 = load i32, ptr %6, align 4, !tbaa !24
  %96 = zext i32 %95 to i64
  %97 = getelementptr inbounds nuw [97 x %struct.opj_stepsize], ptr %94, i64 0, i64 %96
  call void @opj_dwt_encode_stepsize(i32 noundef %89, i32 noundef %92, ptr noundef %97)
  call void @llvm.lifetime.end.p0(i64 4, ptr %11) #9
  call void @llvm.lifetime.end.p0(i64 4, ptr %10) #9
  call void @llvm.lifetime.end.p0(i64 4, ptr %9) #9
  call void @llvm.lifetime.end.p0(i64 4, ptr %8) #9
  call void @llvm.lifetime.end.p0(i64 8, ptr %7) #9
  br label %98

98:                                               ; preds = %85
  %99 = load i32, ptr %6, align 4, !tbaa !24
  %100 = add i32 %99, 1
  store i32 %100, ptr %6, align 4, !tbaa !24
  br label %18, !llvm.loop !120

101:                                              ; preds = %18
  call void @llvm.lifetime.end.p0(i64 4, ptr %6) #9
  call void @llvm.lifetime.end.p0(i64 4, ptr %5) #9
  ret void
}