; Function Attrs: nofree norecurse nosync nounwind memory(argmem: readwrite) uwtable
define hidden void @opj_dwt_calc_explicit_stepsizes(ptr noundef captures(none) %0, i32 noundef %1) local_unnamed_addr #3 {
  %3 = getelementptr inbounds nuw i8, ptr %0, i64 4
  %4 = load i32, ptr %3, align 4, !tbaa !174
  %5 = mul i32 %4, 3
  %6 = add i32 %5, -2
  %.not = icmp eq i32 %6, 0
  br i1 %.not, label %._crit_edge, label %.lr.ph

.lr.ph:                                           ; preds = %2
  %7 = getelementptr inbounds nuw i8, ptr %0, i64 20
  %8 = load i32, ptr %7, align 4, !tbaa !176
  %9 = icmp eq i32 %8, 0
  %10 = getelementptr inbounds nuw i8, ptr %0, i64 24
  %11 = load i32, ptr %10, align 4, !tbaa !177
  %12 = icmp eq i32 %11, 0
  %13 = add i32 %4, -1
  %14 = getelementptr inbounds nuw i8, ptr %0, i64 28
  %wide.trip.count = zext i32 %6 to i64
  br label %15

15:                                               ; preds = %.lr.ph, %opj_dwt_encode_stepsize.exit
  %indvars.iv = phi i64 [ 0, %.lr.ph ], [ %indvars.iv.next, %opj_dwt_encode_stepsize.exit ]
  %16 = icmp eq i64 %indvars.iv, 0
  br i1 %16, label %.thread, label %17

17:                                               ; preds = %15
  %18 = trunc nuw i64 %indvars.iv to i32
  %19 = add i32 %18, -1
  %20 = udiv i32 %19, 3
  %.neg = xor i32 %20, -1
  %21 = urem i32 %19, 3
  %22 = add nuw nsw i32 %21, 1
  br label %.thread

.thread:                                          ; preds = %15, %17
  %.neg2628 = phi i32 [ %.neg, %17 ], [ 0, %15 ]
  %23 = phi i32 [ %22, %17 ], [ 0, %15 ]
  %24 = icmp eq i32 %23, 0
  %or.cond = select i1 %9, i1 true, i1 %24
  %25 = add nsw i32 %23, -1
  %26 = icmp ult i32 %25, 2
  %27 = select i1 %26, i32 1, i32 2
  %28 = select i1 %or.cond, i32 0, i32 %27
  br i1 %12, label %41, label %29

29:                                               ; preds = %.thread
  %30 = add i32 %13, %.neg2628
  %31 = icmp ugt i32 %30, 9
  %or.cond.i = and i1 %31, %24
  %32 = tail call i32 @llvm.umin.i32(i32 %30, i32 8)
  %spec.store.select.i = select i1 %24, i32 %30, i32 %32
  %33 = zext i32 %spec.store.select.i to i64
  %.0.i = select i1 %or.cond.i, i64 9, i64 %33
  %34 = zext nneg i32 %23 to i64
  %35 = getelementptr inbounds nuw [4 x [10 x double]], ptr @opj_dwt_norms_real, i64 0, i64 %34, i64 %.0.i
  %36 = load double, ptr %35, align 8, !tbaa !148
  %37 = shl nuw nsw i32 1, %28
  %38 = uitofp nneg i32 %37 to double
  %39 = fdiv double %38, %36
  %40 = fmul double %39, 8.192000e+03
  br label %41

41:                                               ; preds = %.thread, %29
  %.024 = phi double [ %40, %29 ], [ 8.192000e+03, %.thread ]
  %42 = tail call double @llvm.floor.f64(double %.024)
  %43 = fptosi double %42 to i32
  %44 = add i32 %28, %1
  %45 = getelementptr inbounds nuw [97 x %struct.opj_stepsize], ptr %14, i64 0, i64 %indvars.iv
  %46 = icmp sgt i32 %43, 1
  br i1 %46, label %.lr.ph.i.i, label %opj_dwt_encode_stepsize.exit

.lr.ph.i.i:                                       ; preds = %41, %.lr.ph.i.i
  %.06.i.i = phi i32 [ %48, %.lr.ph.i.i ], [ 0, %41 ]
  %.045.i.i = phi i32 [ %47, %.lr.ph.i.i ], [ %43, %41 ]
  %47 = lshr i32 %.045.i.i, 1
  %48 = add nuw nsw i32 %.06.i.i, 1
  %49 = icmp samesign ugt i32 %.045.i.i, 3
  br i1 %49, label %.lr.ph.i.i, label %.lr.ph.i11.i, !llvm.loop !178

.lr.ph.i11.i:                                     ; preds = %.lr.ph.i.i, %.lr.ph.i11.i
  %.06.i12.i = phi i32 [ %51, %.lr.ph.i11.i ], [ 0, %.lr.ph.i.i ]
  %.045.i13.i = phi i32 [ %50, %.lr.ph.i11.i ], [ %43, %.lr.ph.i.i ]
  %50 = lshr i32 %.045.i13.i, 1
  %51 = add nuw nsw i32 %.06.i12.i, 1
  %52 = icmp samesign ugt i32 %.045.i13.i, 3
  br i1 %52, label %.lr.ph.i11.i, label %opj_int_floorlog2.exit14.i, !llvm.loop !178

opj_int_floorlog2.exit14.i:                       ; preds = %.lr.ph.i11.i
  %53 = icmp samesign ugt i32 %.06.i12.i, 10
  %.neg.i = add nsw i32 %.06.i12.i, -10
  %54 = lshr i32 %43, %.neg.i
  %55 = sub nsw i32 10, %.06.i12.i
  %56 = shl i32 %43, %55
  %spec.select.i = select i1 %53, i32 %54, i32 %56
  %.neg30 = sub nsw i32 12, %.06.i.i
  %57 = and i32 %spec.select.i, 2047
  br label %opj_dwt_encode_stepsize.exit

opj_dwt_encode_stepsize.exit:                     ; preds = %41, %opj_int_floorlog2.exit14.i
  %.0.lcssa.i1621.i.neg31 = phi i32 [ %.neg30, %opj_int_floorlog2.exit14.i ], [ 13, %41 ]
  %58 = phi i32 [ %57, %opj_int_floorlog2.exit14.i ], [ 0, %41 ]
  %59 = getelementptr inbounds nuw i8, ptr %45, i64 4
  store i32 %58, ptr %59, align 4, !tbaa !179
  %60 = add i32 %44, %.0.lcssa.i1621.i.neg31
  store i32 %60, ptr %45, align 4, !tbaa !181
  %indvars.iv.next = add nuw nsw i64 %indvars.iv, 1
  %exitcond.not = icmp eq i64 %indvars.iv.next, %wide.trip.count
  br i1 %exitcond.not, label %._crit_edge, label %15, !llvm.loop !182

._crit_edge:                                      ; preds = %opj_dwt_encode_stepsize.exit, %2
  ret void
}